#include <math.h>
#include <stdio.h>
#include <stdlib.h>
#include <string.h>


int i=1,n,k,t=1;
int apple(void)
{
    int re;
	if(t==n)
    {
	    return i*n+k;
	}
	else
	{
		for(;;i++)
		{
			t++;
	        re=apple();
			t--;
		    if(re%(n-1)==0)
			    return re/(n-1)*n+k;
		}
		
	}
}

int main()
{
	 int s;
     scanf("%d%d",&n,&k);

	 s=apple();
	 printf("%d",s);
	 return 0;

}