; ModuleID = '54/1838.c'
source_filename = "54/1838.c"
target datalayout = "e-m:e-p270:32:32-p271:32:32-p272:64:64-i64:64-f80:128-n8:16:32:64-S128"
target triple = "x86_64-pc-linux-gnu"

@i = dso_local global i32 1, align 4
@t = dso_local global i32 1, align 4
@n = common dso_local global i32 0, align 4
@k = common dso_local global i32 0, align 4
@.str = private unnamed_addr constant [5 x i8] c"%d%d\00", align 1
@.str.1 = private unnamed_addr constant [3 x i8] c"%d\00", align 1

; Function Attrs: noinline nounwind uwtable
define dso_local i32 @apple() #0 {
  %1 = alloca i32, align 4
  %2 = alloca i32, align 4
  %3 = load i32, i32* @t, align 4
  %4 = load i32, i32* @n, align 4
  %5 = icmp eq i32 %3, %4
  br i1 %5, label %6, label %12

6:                                                ; preds = %0
  %7 = load i32, i32* @i, align 4
  %8 = load i32, i32* @n, align 4
  %9 = mul nsw i32 %7, %8
  %10 = load i32, i32* @k, align 4
  %11 = add nsw i32 %9, %10
  store i32 %11, i32* %1, align 4
  br label %37

12:                                               ; preds = %0
  br label %13

13:                                               ; preds = %34, %12
  %14 = load i32, i32* @t, align 4
  %15 = add nsw i32 %14, 1
  store i32 %15, i32* @t, align 4
  %16 = call i32 @apple()
  store i32 %16, i32* %2, align 4
  %17 = load i32, i32* @t, align 4
  %18 = add nsw i32 %17, -1
  store i32 %18, i32* @t, align 4
  %19 = load i32, i32* %2, align 4
  %20 = load i32, i32* @n, align 4
  %21 = sub nsw i32 %20, 1
  %22 = srem i32 %19, %21
  %23 = icmp eq i32 %22, 0
  br i1 %23, label %24, label %33

24:                                               ; preds = %13
  %25 = load i32, i32* %2, align 4
  %26 = load i32, i32* @n, align 4
  %27 = sub nsw i32 %26, 1
  %28 = sdiv i32 %25, %27
  %29 = load i32, i32* @n, align 4
  %30 = mul nsw i32 %28, %29
  %31 = load i32, i32* @k, align 4
  %32 = add nsw i32 %30, %31
  store i32 %32, i32* %1, align 4
  br label %37

33:                                               ; preds = %13
  br label %34

34:                                               ; preds = %33
  %35 = load i32, i32* @i, align 4
  %36 = add nsw i32 %35, 1
  store i32 %36, i32* @i, align 4
  br label %13

37:                                               ; preds = %24, %6
  %38 = load i32, i32* %1, align 4
  ret i32 %38
}

; Function Attrs: noinline nounwind uwtable
define dso_local i32 @main() #0 {
  %1 = alloca i32, align 4
  %2 = alloca i32, align 4
  store i32 0, i32* %1, align 4
  %3 = call i32 (i8*, ...) @__isoc99_scanf(i8* getelementptr inbounds ([5 x i8], [5 x i8]* @.str, i64 0, i64 0), i32* @n, i32* @k)
  %4 = call i32 @apple()
  store i32 %4, i32* %2, align 4
  %5 = load i32, i32* %2, align 4
  %6 = call i32 (i8*, ...) @printf(i8* getelementptr inbounds ([3 x i8], [3 x i8]* @.str.1, i64 0, i64 0), i32 %5)
  ret i32 0
}

declare dso_local i32 @__isoc99_scanf(i8*, ...) #1

declare dso_local i32 @printf(i8*, ...) #1


!llvm.module.flags = !{!0}
!llvm.ident = !{!1}

!0 = !{i32 1, !"wchar_size", i32 4}
!1 = !{!"clang version 10.0.0-4ubuntu1 "}
